; Function Attrs: mustprogress nounwind uwtable
define dso_local void @_ZN5clang12RequiresExprC2ERNS_10ASTContextENS_4Stmt10EmptyShellEjj(ptr nocapture noundef nonnull writeonly align 8 dereferenceable(48) %0, ptr nocapture nonnull readnone align 8 %1, i32 noundef %2, i32 noundef %3) unnamed_addr #0 align 2 {
  store i8 16, ptr %0, align 8
  %5 = load i8, ptr @_ZN5clang4Stmt17StatisticsEnabledE, align 1
  %6 = trunc i8 %5 to i1
  br i1 %6, label %7, label %_ZN5clang4ExprC2ENS_4Stmt9StmtClassENS1_10EmptyShellE.exit

7:                                                ; preds = %4
  tail call void @_ZN5clang4Stmt12addStmtClassENS0_9StmtClassE(i32 noundef 16) #5
  br label %_ZN5clang4ExprC2ENS_4Stmt9StmtClassENS1_10EmptyShellE.exit

_ZN5clang4ExprC2ENS_4Stmt9StmtClassENS1_10EmptyShellE.exit: ; preds = %4, %7
  %8 = getelementptr inbounds nuw i8, ptr %0, i64 8
  store i64 0, ptr %8, align 8
  %9 = getelementptr inbounds nuw i8, ptr %0, i64 16
  store i32 %2, ptr %9, align 8
  %10 = getelementptr inbounds nuw i8, ptr %0, i64 20
  store i32 %3, ptr %10, align 4
  %11 = getelementptr inbounds nuw i8, ptr %0, i64 32
  store i32 0, ptr %11, align 8
  %12 = getelementptr inbounds nuw i8, ptr %0, i64 36
  store i32 0, ptr %12, align 4
  %13 = getelementptr inbounds nuw i8, ptr %0, i64 40
  store i32 0, ptr %13, align 8
  ret void
}